target datalayout = "e-m:e-p270:32:32-p271:32:32-p272:64:64-i64:64-i128:128-f80:128-n8:16:32:64-S128"
target triple = "x86_64-pc-linux-gnu"

@_ZZNSt3__119__thread_local_dataEvE3__b = internal global [4 x i8] zeroinitializer, align 4
@_ZZNSt3__119__thread_local_dataEvE3__p = internal global ptr null, align 8
@_ZGVZNSt3__119__thread_local_dataEvE3__p = internal global i64 0, align 8

; Function Attrs: mustprogress uwtable
define dso_local noundef nonnull align 4 dereferenceable(4) ptr @_ZNSt3__119__thread_local_dataEv() #3 personality ptr @__gxx_personality_v0 {
  %1 = alloca ptr, align 8
  %2 = alloca i32, align 4
  %3 = load atomic i8, ptr @_ZGVZNSt3__119__thread_local_dataEvE3__p acquire, align 8
  %4 = icmp eq i8 %3, 0
  br i1 %4, label %5, label %10, !prof !27

5:                                                ; preds = %0
  %6 = call i32 @__cxa_guard_acquire(ptr @_ZGVZNSt3__119__thread_local_dataEvE3__p) #8
  %7 = icmp ne i32 %6, 0
  br i1 %7, label %8, label %10

8:                                                ; preds = %5
  invoke void @_ZNSt3__121__thread_specific_ptrINS_15__thread_structEEC2Ev(ptr noundef nonnull align 4 dereferenceable(4) @_ZZNSt3__119__thread_local_dataEvE3__b)
          to label %9 unwind label %12

9:                                                ; preds = %8
  store ptr @_ZZNSt3__119__thread_local_dataEvE3__b, ptr @_ZZNSt3__119__thread_local_dataEvE3__p, align 8, !tbaa !28
  call void @__cxa_guard_release(ptr @_ZGVZNSt3__119__thread_local_dataEvE3__p) #8
  br label %10

10:                                               ; preds = %9, %5, %0
  %11 = load ptr, ptr @_ZZNSt3__119__thread_local_dataEvE3__p, align 8, !tbaa !28
  ret ptr %11

12:                                               ; preds = %8
  %13 = landingpad { ptr, i32 }
          cleanup
  %14 = extractvalue { ptr, i32 } %13, 0
  store ptr %14, ptr %1, align 8
  %15 = extractvalue { ptr, i32 } %13, 1
  store i32 %15, ptr %2, align 4
  call void @__cxa_guard_abort(ptr @_ZGVZNSt3__119__thread_local_dataEvE3__p) #8
  br label %16

16:                                               ; preds = %12
  %17 = load ptr, ptr %1, align 8
  %18 = load i32, ptr %2, align 4
  %19 = insertvalue { ptr, i32 } poison, ptr %17, 0
  %20 = insertvalue { ptr, i32 } %19, i32 %18, 1
  resume { ptr, i32 } %20
}