; Function Attrs: mustprogress uwtable
define dso_local noundef nonnull align 4 dereferenceable(4) ptr @_ZNSt3__119__thread_local_dataEv() local_unnamed_addr #3 personality ptr @__gxx_personality_v0 {
  %1 = load atomic i8, ptr @_ZGVZNSt3__119__thread_local_dataEvE3__p acquire, align 8
  %2 = icmp eq i8 %1, 0
  br i1 %2, label %3, label %7, !prof !17

3:                                                ; preds = %0
  %4 = tail call i32 @__cxa_guard_acquire(ptr nonnull @_ZGVZNSt3__119__thread_local_dataEvE3__p) #21
  %.not = icmp eq i32 %4, 0
  br i1 %.not, label %7, label %5

5:                                                ; preds = %3
  invoke void @_ZNSt3__121__thread_specific_ptrINS_15__thread_structEEC2Ev(ptr noundef nonnull align 4 dereferenceable(4) @_ZZNSt3__119__thread_local_dataEvE3__b)
          to label %6 unwind label %9

6:                                                ; preds = %5
  store ptr @_ZZNSt3__119__thread_local_dataEvE3__b, ptr @_ZZNSt3__119__thread_local_dataEvE3__p, align 8, !tbaa !18
  tail call void @__cxa_guard_release(ptr nonnull @_ZGVZNSt3__119__thread_local_dataEvE3__p) #21
  br label %7

7:                                                ; preds = %6, %3, %0
  %8 = load ptr, ptr @_ZZNSt3__119__thread_local_dataEvE3__p, align 8, !tbaa !18
  ret ptr %8

9:                                                ; preds = %5
  %10 = landingpad { ptr, i32 }
          cleanup
  tail call void @__cxa_guard_abort(ptr nonnull @_ZGVZNSt3__119__thread_local_dataEvE3__p) #21
  resume { ptr, i32 } %10
}